; ModuleID = 'source-C-CXX/59/616.c'
source_filename = "source-C-CXX/59/616.c"
target datalayout = "e-m:e-p270:32:32-p271:32:32-p272:64:64-i64:64-f80:128-n8:16:32:64-S128"
target triple = "x86_64-pc-linux-gnu"

@.str = private unnamed_addr constant [3 x i8] c"%d\00", align 1
@.str.1 = private unnamed_addr constant [7 x i8] c"%d %d\0A\00", align 1
@.str.2 = private unnamed_addr constant [6 x i8] c"empty\00", align 1

; Function Attrs: nofree norecurse nosync nounwind readnone sspstrong uwtable
define dso_local i32 @sushu(i32 %0) local_unnamed_addr #0 {
  %2 = icmp sgt i32 %0, 2
  br i1 %2, label %3, label %10

3:                                                ; preds = %1, %7
  %4 = phi i32 [ %8, %7 ], [ 2, %1 ]
  %5 = srem i32 %0, %4
  %6 = icmp eq i32 %5, 0
  br i1 %6, label %10, label %7

7:                                                ; preds = %3
  %8 = add nuw nsw i32 %4, 1
  %9 = icmp eq i32 %8, %0
  br i1 %9, label %10, label %3, !llvm.loop !5

10:                                               ; preds = %7, %3, %1
  %11 = phi i32 [ 2, %1 ], [ %4, %3 ], [ %0, %7 ]
  %12 = icmp eq i32 %11, %0
  %13 = zext i1 %12 to i32
  ret i32 %13
}

; Function Attrs: argmemonly mustprogress nofree nosync nounwind willreturn
declare void @llvm.lifetime.start.p0i8(i64 immarg, i8* nocapture) #1

; Function Attrs: argmemonly mustprogress nofree nosync nounwind willreturn
declare void @llvm.lifetime.end.p0i8(i64 immarg, i8* nocapture) #1

; Function Attrs: nofree nounwind sspstrong uwtable
define dso_local i32 @main() local_unnamed_addr #2 {
  %1 = alloca i32, align 4
  %2 = bitcast i32* %1 to i8*
  call void @llvm.lifetime.start.p0i8(i64 4, i8* nonnull %2) #4
  %3 = call i32 (i8*, ...) @__isoc99_scanf(i8* getelementptr inbounds ([3 x i8], [3 x i8]* @.str, i64 0, i64 0), i32* nonnull %1)
  %4 = load i32, i32* %1, align 4, !tbaa !7
  %5 = icmp slt i32 %4, 4
  br i1 %5, label %43, label %8

6:                                                ; preds = %38
  %7 = icmp eq i32 %40, 0
  br i1 %7, label %43, label %45

8:                                                ; preds = %0, %38
  %9 = phi i32 [ %39, %38 ], [ %4, %0 ]
  %10 = phi i32 [ %41, %38 ], [ 4, %0 ]
  %11 = phi i32 [ %40, %38 ], [ 0, %0 ]
  %12 = add nsw i32 %10, -2
  %13 = icmp ugt i32 %10, 4
  br i1 %13, label %14, label %21

14:                                               ; preds = %8, %18
  %15 = phi i32 [ %19, %18 ], [ 2, %8 ]
  %16 = urem i32 %12, %15
  %17 = icmp eq i32 %16, 0
  br i1 %17, label %21, label %18

18:                                               ; preds = %14
  %19 = add nuw nsw i32 %15, 1
  %20 = icmp eq i32 %19, %12
  br i1 %20, label %24, label %14, !llvm.loop !5

21:                                               ; preds = %14, %8
  %22 = phi i32 [ 2, %8 ], [ %15, %14 ]
  %23 = icmp eq i32 %22, %12
  br i1 %23, label %24, label %38

24:                                               ; preds = %18, %21
  br label %25

25:                                               ; preds = %24, %29
  %26 = phi i32 [ %30, %29 ], [ 2, %24 ]
  %27 = urem i32 %10, %26
  %28 = icmp eq i32 %27, 0
  br i1 %28, label %32, label %29

29:                                               ; preds = %25
  %30 = add nuw nsw i32 %26, 1
  %31 = icmp eq i32 %30, %10
  br i1 %31, label %34, label %25, !llvm.loop !5

32:                                               ; preds = %25
  %33 = icmp eq i32 %26, %10
  br i1 %33, label %34, label %38

34:                                               ; preds = %29, %32
  %35 = call i32 (i8*, ...) @printf(i8* nonnull dereferenceable(1) getelementptr inbounds ([7 x i8], [7 x i8]* @.str.1, i64 0, i64 0), i32 %12, i32 %10)
  %36 = add nsw i32 %11, 1
  %37 = load i32, i32* %1, align 4, !tbaa !7
  br label %38

38:                                               ; preds = %21, %32, %34
  %39 = phi i32 [ %37, %34 ], [ %9, %32 ], [ %9, %21 ]
  %40 = phi i32 [ %36, %34 ], [ %11, %32 ], [ %11, %21 ]
  %41 = add nuw nsw i32 %10, 1
  %42 = icmp slt i32 %10, %39
  br i1 %42, label %8, label %6, !llvm.loop !11

43:                                               ; preds = %0, %6
  %44 = call i32 (i8*, ...) @printf(i8* nonnull dereferenceable(1) getelementptr inbounds ([6 x i8], [6 x i8]* @.str.2, i64 0, i64 0))
  br label %45

45:                                               ; preds = %43, %6
  call void @llvm.lifetime.end.p0i8(i64 4, i8* nonnull %2) #4
  ret i32 0
}

; Function Attrs: nofree nounwind
declare noundef i32 @__isoc99_scanf(i8* nocapture noundef readonly, ...) local_unnamed_addr #3

; Function Attrs: nofree nounwind
declare noundef i32 @printf(i8* nocapture noundef readonly, ...) local_unnamed_addr #3


!llvm.module.flags = !{!0, !1, !2, !3}
!llvm.ident = !{!4}

!0 = !{i32 1, !"wchar_size", i32 4}
!1 = !{i32 7, !"PIC Level", i32 2}
!2 = !{i32 7, !"PIE Level", i32 2}
!3 = !{i32 7, !"uwtable", i32 1}
!4 = !{!"clang version 13.0.0"}
!5 = distinct !{!5, !6}
!6 = !{!"llvm.loop.mustprogress"}
!7 = !{!8, !8, i64 0}
!8 = !{!"int", !9, i64 0}
!9 = !{!"omnipotent char", !10, i64 0}
!10 = !{!"Simple C/C++ TBAA"}
!11 = distinct !{!11, !6}
